target datalayout = "e-m:e-p270:32:32-p271:32:32-p272:64:64-i64:64-i128:128-f80:128-n8:16:32:64-S128"
target triple = "x86_64-pc-linux-gnu"

%struct.zip_requests = type { [10 x ptr], [10 x i64], i32, i32, i32, i32 }

@.str.21 = private unnamed_addr constant [21 x i8] c"in unzip_search_add\0A\00", align 1
@.str.22 = private unnamed_addr constant [30 x i8] c"DEBUGGING MESSAGE GOES HERE!\0A\00", align 1
@.str.23 = private unnamed_addr constant [40 x i8] c"unzip_search_add: adding %s (len %llu)\0A\00", align 1
@.str.29 = private unnamed_addr constant [24 x i8] c"in unzip_search_single\0A\00", align 1

; Function Attrs: nounwind uwtable
define i32 @unzip_search_add(ptr noundef %0, ptr noundef %1, i64 noundef %2) #0 {
  %4 = alloca i32, align 4
  %5 = alloca ptr, align 8
  %6 = alloca ptr, align 8
  %7 = alloca i64, align 8
  store ptr %0, ptr %5, align 8
  store ptr %1, ptr %6, align 8
  store i64 %2, ptr %7, align 8
  call void (ptr, ...) @cli_dbgmsg(ptr noundef @.str.21)
  %8 = load ptr, ptr %5, align 8
  %9 = getelementptr inbounds %struct.zip_requests, ptr %8, i32 0, i32 2
  %10 = load i32, ptr %9, align 8
  %11 = icmp sge i32 %10, 10
  br i1 %11, label %12, label %13

12:                                               ; preds = %3
  call void (ptr, ...) @cli_dbgmsg(ptr noundef @.str.22)
  store i32 22, ptr %4, align 4
  br label %36

13:                                               ; preds = %3
  %14 = load ptr, ptr %6, align 8
  %15 = load i64, ptr %7, align 8
  call void (ptr, ...) @cli_dbgmsg(ptr noundef @.str.23, ptr noundef %14, i64 noundef %15)
  %16 = load ptr, ptr %6, align 8
  %17 = load ptr, ptr %5, align 8
  %18 = getelementptr inbounds %struct.zip_requests, ptr %17, i32 0, i32 0
  %19 = load ptr, ptr %5, align 8
  %20 = getelementptr inbounds %struct.zip_requests, ptr %19, i32 0, i32 2
  %21 = load i32, ptr %20, align 8
  %22 = sext i32 %21 to i64
  %23 = getelementptr inbounds [10 x ptr], ptr %18, i64 0, i64 %22
  store ptr %16, ptr %23, align 8
  %24 = load i64, ptr %7, align 8
  %25 = load ptr, ptr %5, align 8
  %26 = getelementptr inbounds %struct.zip_requests, ptr %25, i32 0, i32 1
  %27 = load ptr, ptr %5, align 8
  %28 = getelementptr inbounds %struct.zip_requests, ptr %27, i32 0, i32 2
  %29 = load i32, ptr %28, align 8
  %30 = sext i32 %29 to i64
  %31 = getelementptr inbounds [10 x i64], ptr %26, i64 0, i64 %30
  store i64 %24, ptr %31, align 8
  %32 = load ptr, ptr %5, align 8
  %33 = getelementptr inbounds %struct.zip_requests, ptr %32, i32 0, i32 2
  %34 = load i32, ptr %33, align 8
  %35 = add nsw i32 %34, 1
  store i32 %35, ptr %33, align 8
  store i32 0, ptr %4, align 4
  br label %36

36:                                               ; preds = %13, %12
  %37 = load i32, ptr %4, align 4
  ret i32 %37
}

; Function Attrs: nounwind uwtable
define i32 @unzip_search_single(ptr noundef %0, ptr noundef %1, i64 noundef %2, ptr noundef %3) #0 {
  %5 = alloca i32, align 4
  %6 = alloca ptr, align 8
  %7 = alloca ptr, align 8
  %8 = alloca i64, align 8
  %9 = alloca ptr, align 8
  %10 = alloca %struct.zip_requests, align 8
  %11 = alloca i32, align 4
  store ptr %0, ptr %6, align 8
  store ptr %1, ptr %7, align 8
  store i64 %2, ptr %8, align 8
  store ptr %3, ptr %9, align 8
  call void (ptr, ...) @cli_dbgmsg(ptr noundef @.str.29)
  %12 = load ptr, ptr %6, align 8
  %13 = icmp ne ptr %12, null
  br i1 %13, label %15, label %14

14:                                               ; preds = %4
  store i32 2, ptr %5, align 4
  br label %32

15:                                               ; preds = %4
  call void @llvm.memset.p0.i64(ptr align 8 %10, i8 0, i64 176, i1 false)
  %16 = load ptr, ptr %7, align 8
  %17 = load i64, ptr %8, align 8
  %18 = call i32 @unzip_search_add(ptr noundef %10, ptr noundef %16, i64 noundef %17)
  store i32 %18, ptr %11, align 4
  %19 = icmp ne i32 %18, 0
  br i1 %19, label %20, label %22

20:                                               ; preds = %15
  %21 = load i32, ptr %11, align 4
  store i32 %21, ptr %5, align 4
  br label %32

22:                                               ; preds = %15
  %23 = load ptr, ptr %6, align 8
  %24 = call i32 @unzip_search(ptr noundef %23, ptr noundef null, ptr noundef %10)
  store i32 %24, ptr %11, align 4
  %25 = icmp eq i32 %24, 1
  br i1 %25, label %26, label %30

26:                                               ; preds = %22
  %27 = getelementptr inbounds %struct.zip_requests, ptr %10, i32 0, i32 3
  %28 = load i32, ptr %27, align 4
  %29 = load ptr, ptr %9, align 8
  store i32 %28, ptr %29, align 4
  br label %30

30:                                               ; preds = %26, %22
  %31 = load i32, ptr %11, align 4
  store i32 %31, ptr %5, align 4
  br label %32

32:                                               ; preds = %30, %20, %14
  %33 = load i32, ptr %5, align 4
  ret i32 %33
}