; Function Attrs: nounwind uwtable
define i32 @unzip_search_single(ptr noundef %0, ptr noundef %1, i64 noundef %2, ptr nocapture noundef writeonly %3) local_unnamed_addr #0 {
  %5 = alloca %struct.zip_requests, align 8
  tail call void (ptr, ...) @cli_dbgmsg(ptr noundef nonnull @.str.29) #12
  %.not = icmp eq ptr %0, null
  br i1 %.not, label %15, label %6

6:                                                ; preds = %4
  %7 = getelementptr inbounds i8, ptr %5, i64 8
  call void @llvm.memset.p0.i64(ptr noundef nonnull align 8 dereferenceable(176) %7, i8 0, i64 168, i1 false)
  tail call void (ptr, ...) @cli_dbgmsg(ptr noundef nonnull @.str.21) #12
  %8 = getelementptr inbounds i8, ptr %5, i64 160
  tail call void (ptr, ...) @cli_dbgmsg(ptr noundef nonnull @.str.23, ptr noundef %1, i64 noundef %2) #12
  store ptr %1, ptr %5, align 8
  %9 = getelementptr inbounds i8, ptr %5, i64 80
  store i64 %2, ptr %9, align 8
  store i32 1, ptr %8, align 8
  %10 = call i32 @unzip_search(ptr noundef nonnull %0, ptr noundef null, ptr noundef nonnull %5)
  %11 = icmp eq i32 %10, 1
  br i1 %11, label %12, label %15

12:                                               ; preds = %6
  %13 = getelementptr inbounds i8, ptr %5, i64 164
  %14 = load i32, ptr %13, align 4
  store i32 %14, ptr %3, align 4
  br label %15

15:                                               ; preds = %6, %12, %4
  %.0 = phi i32 [ 2, %4 ], [ 1, %12 ], [ %10, %6 ]
  ret i32 %.0
}